; Function Attrs: mustprogress nofree nounwind willreturn memory(readwrite, inaccessiblemem: write) uwtable
define void @RGB2LAB(ptr dead_on_unwind noalias writable writeonly sret(%struct.lab_struct) align 8 captures(none) initializes((0, 24)) %0, ptr noundef readonly byval(%struct.rgb_struct) align 8 captures(none) %1) local_unnamed_addr #4 {
  %.sroa.016.0.copyload = load double, ptr %1, align 8
  %.sroa.417.0..sroa_idx = getelementptr inbounds nuw i8, ptr %1, i64 8
  %.sroa.417.0.copyload = load double, ptr %.sroa.417.0..sroa_idx, align 8
  %.sroa.5.0..sroa_idx = getelementptr inbounds nuw i8, ptr %1, i64 16
  %.sroa.5.0.copyload = load double, ptr %.sroa.5.0..sroa_idx, align 8
  %3 = fdiv double %.sroa.016.0.copyload, 2.550000e+02
  %4 = fcmp ogt double %3, 4.045000e-02
  br i1 %4, label %5, label %10

5:                                                ; preds = %2
  %6 = fadd double %3, 5.500000e-02
  %7 = fdiv double %6, 1.055000e+00
  %8 = tail call double @pow(double noundef %7, double noundef 2.400000e+00) #19, !tbaa !18, !noalias !23
  %9 = fmul double %8, 1.000000e+02
  br label %PivotRgb.exit.i

10:                                               ; preds = %2
  %11 = fmul double %3, 1.000000e+02
  %12 = fdiv double %11, 1.292000e+01
  br label %PivotRgb.exit.i

PivotRgb.exit.i:                                  ; preds = %10, %5
  %.0.i.i = phi double [ %9, %5 ], [ %12, %10 ]
  %13 = fdiv double %.sroa.417.0.copyload, 2.550000e+02
  %14 = fcmp ogt double %13, 4.045000e-02
  br i1 %14, label %15, label %20

15:                                               ; preds = %PivotRgb.exit.i
  %16 = fadd double %13, 5.500000e-02
  %17 = fdiv double %16, 1.055000e+00
  %18 = tail call double @pow(double noundef %17, double noundef 2.400000e+00) #19, !tbaa !18, !noalias !23
  %19 = fmul double %18, 1.000000e+02
  br label %PivotRgb.exit10.i

20:                                               ; preds = %PivotRgb.exit.i
  %21 = fmul double %13, 1.000000e+02
  %22 = fdiv double %21, 1.292000e+01
  br label %PivotRgb.exit10.i

PivotRgb.exit10.i:                                ; preds = %20, %15
  %.0.i9.i = phi double [ %19, %15 ], [ %22, %20 ]
  %23 = fdiv double %.sroa.5.0.copyload, 2.550000e+02
  %24 = fcmp ogt double %23, 4.045000e-02
  br i1 %24, label %25, label %30

25:                                               ; preds = %PivotRgb.exit10.i
  %26 = fadd double %23, 5.500000e-02
  %27 = fdiv double %26, 1.055000e+00
  %28 = tail call double @pow(double noundef %27, double noundef 2.400000e+00) #19, !tbaa !18, !noalias !23
  %29 = fmul double %28, 1.000000e+02
  br label %RGB2XYZ.exit

30:                                               ; preds = %PivotRgb.exit10.i
  %31 = fmul double %23, 1.000000e+02
  %32 = fdiv double %31, 1.292000e+01
  br label %RGB2XYZ.exit

RGB2XYZ.exit:                                     ; preds = %25, %30
  %.0.i11.i = phi double [ %29, %25 ], [ %32, %30 ]
  %33 = fmul double %.0.i9.i, 3.576000e-01
  %34 = tail call double @llvm.fmuladd.f64(double %.0.i.i, double 4.124000e-01, double %33)
  %35 = tail call double @llvm.fmuladd.f64(double %.0.i11.i, double 1.805000e-01, double %34)
  %36 = fmul double %.0.i9.i, 7.152000e-01
  %37 = tail call double @llvm.fmuladd.f64(double %.0.i.i, double 2.126000e-01, double %36)
  %38 = tail call double @llvm.fmuladd.f64(double %.0.i11.i, double 7.220000e-02, double %37)
  %39 = fmul double %.0.i9.i, 1.192000e-01
  %40 = tail call double @llvm.fmuladd.f64(double %.0.i.i, double 1.930000e-02, double %39)
  %41 = tail call double @llvm.fmuladd.f64(double %.0.i11.i, double 9.505000e-01, double %40)
  %42 = fdiv double %35, 0x4057C3020C49BA5E
  %43 = load double, ptr @XYZEpsilon, align 8, !tbaa !26
  %44 = fcmp ogt double %42, %43
  br i1 %44, label %45, label %47

45:                                               ; preds = %RGB2XYZ.exit
  %46 = tail call double @pow(double noundef %42, double noundef 0x3FD5555555555555) #19, !tbaa !18
  br label %PivotXYZ.exit

47:                                               ; preds = %RGB2XYZ.exit
  %48 = load double, ptr @XYZKappa, align 8, !tbaa !26
  %49 = tail call double @llvm.fmuladd.f64(double %48, double %42, double 1.600000e+01)
  %50 = fdiv double %49, 1.160000e+02
  br label %PivotXYZ.exit

PivotXYZ.exit:                                    ; preds = %45, %47
  %.0.i = phi double [ %46, %45 ], [ %50, %47 ]
  %51 = fdiv double %38, 1.000000e+02
  %52 = fcmp ogt double %51, %43
  br i1 %52, label %53, label %55

53:                                               ; preds = %PivotXYZ.exit
  %54 = tail call double @pow(double noundef %51, double noundef 0x3FD5555555555555) #19, !tbaa !18
  br label %PivotXYZ.exit10

55:                                               ; preds = %PivotXYZ.exit
  %56 = load double, ptr @XYZKappa, align 8, !tbaa !26
  %57 = tail call double @llvm.fmuladd.f64(double %56, double %51, double 1.600000e+01)
  %58 = fdiv double %57, 1.160000e+02
  br label %PivotXYZ.exit10

PivotXYZ.exit10:                                  ; preds = %53, %55
  %.0.i9 = phi double [ %54, %53 ], [ %58, %55 ]
  %59 = fdiv double %41, 1.088830e+02
  %60 = fcmp ogt double %59, %43
  br i1 %60, label %61, label %63

61:                                               ; preds = %PivotXYZ.exit10
  %62 = tail call double @pow(double noundef %59, double noundef 0x3FD5555555555555) #19, !tbaa !18
  br label %PivotXYZ.exit12

63:                                               ; preds = %PivotXYZ.exit10
  %64 = load double, ptr @XYZKappa, align 8, !tbaa !26
  %65 = tail call double @llvm.fmuladd.f64(double %64, double %59, double 1.600000e+01)
  %66 = fdiv double %65, 1.160000e+02
  br label %PivotXYZ.exit12

PivotXYZ.exit12:                                  ; preds = %61, %63
  %.0.i11 = phi double [ %62, %61 ], [ %66, %63 ]
  %67 = tail call double @llvm.fmuladd.f64(double %.0.i9, double 1.160000e+02, double -1.600000e+01)
  %68 = fcmp olt double %67, 0.000000e+00
  %69 = select i1 %68, double 0.000000e+00, double %67
  %70 = fsub double %.0.i, %.0.i9
  %71 = fmul double %70, 5.000000e+02
  %72 = fsub double %.0.i9, %.0.i11
  %73 = fmul double %72, 2.000000e+02
  store double %69, ptr %0, align 8, !tbaa !14, !alias.scope !27
  %74 = getelementptr inbounds nuw i8, ptr %0, i64 8
  store double %71, ptr %74, align 8, !tbaa !16, !alias.scope !27
  %75 = getelementptr inbounds nuw i8, ptr %0, i64 16
  store double %73, ptr %75, align 8, !tbaa !17, !alias.scope !27
  ret void
}